target datalayout = "e-m:e-p270:32:32-p271:32:32-p272:64:64-i64:64-i128:128-f80:128-n8:16:32:64-S128"
target triple = "x86_64-pc-linux-gnu"

%"class.icu_77::MaybeStackArray" = type <{ ptr, i32, i8, [40 x i8], [3 x i8] }>
%"class.icu_77::CharString" = type { %"class.icu_77::MaybeStackArray", i32, [4 x i8] }
%"class.icu_77::MeasureUnitImpl" = type { i32, %"class.icu_77::MaybeStackVector", %"class.icu_77::CharString", i64 }
%"class.icu_77::MaybeStackVector" = type { %"class.icu_77::MemoryPool" }
%"class.icu_77::MemoryPool" = type { i32, %"class.icu_77::MaybeStackArray.0" }
%"class.icu_77::MaybeStackArray.0" = type { ptr, i32, i8, [8 x ptr] }
%"class.icu_77::BytesTrie" = type <{ ptr, ptr, ptr, i32, [4 x i8] }>
%"class.icu_77::StringPiece" = type <{ ptr, i32, [4 x i8] }>
%"class.icu_77::UObject" = type { ptr }
%"class.icu_77::(anonymous namespace)::Parser" = type <{ i32, [4 x i8], %"class.icu_77::StringPiece", %"class.icu_77::BytesTrie", i8, i8, [6 x i8] }>
%"class.icu_77::MeasureUnit" = type <{ %"class.icu_77::UObject", ptr, i16, i8, [5 x i8] }>

@_ZN6icu_7715MaybeStackArrayIcLi40EED1Ev = weak_odr unnamed_addr alias void (ptr), ptr @_ZN6icu_7715MaybeStackArrayIcLi40EED2Ev

; Function Attrs: mustprogress uwtable
define linkonce_odr void @_ZN6icu_7715MaybeStackArrayIPNS_14SingleUnitImplELi8EE12releaseArrayEv(ptr noundef nonnull align 8 dereferenceable(80) %0) #1 comdat align 2 {
  %2 = alloca ptr, align 8
  store ptr %0, ptr %2, align 8, !tbaa !180
  %3 = load ptr, ptr %2, align 8
  %4 = getelementptr inbounds nuw %"class.icu_77::MaybeStackArray.0", ptr %3, i32 0, i32 2
  %5 = load i8, ptr %4, align 4, !tbaa !184
  %6 = icmp ne i8 %5, 0
  br i1 %6, label %7, label %10

7:                                                ; preds = %1
  %8 = getelementptr inbounds nuw %"class.icu_77::MaybeStackArray.0", ptr %3, i32 0, i32 0
  %9 = load ptr, ptr %8, align 8, !tbaa !182
  call void @uprv_free_77(ptr noundef %9)
  br label %10

10:                                               ; preds = %7, %1
  ret void
}

; Function Attrs: inlinehint mustprogress nounwind uwtable
define linkonce_odr void @_ZSt4swapIiENSt9enable_ifIXsr6__and_ISt6__not_ISt15__is_tuple_likeIT_EESt21is_move_constructibleIS3_ESt18is_move_assignableIS3_EEE5valueEvE4typeERS3_SC_(ptr noundef nonnull align 4 dereferenceable(4) %0, ptr noundef nonnull align 4 dereferenceable(4) %1) #2 comdat {
  %3 = alloca ptr, align 8
  %4 = alloca ptr, align 8
  %5 = alloca i32, align 4
  store ptr %0, ptr %3, align 8, !tbaa !20
  store ptr %1, ptr %4, align 8, !tbaa !20
  call void @llvm.lifetime.start.p0(i64 4, ptr %5) #14
  %6 = load ptr, ptr %3, align 8, !tbaa !20
  %7 = load i32, ptr %6, align 4, !tbaa !14
  store i32 %7, ptr %5, align 4, !tbaa !14
  %8 = load ptr, ptr %4, align 8, !tbaa !20
  %9 = load i32, ptr %8, align 4, !tbaa !14
  %10 = load ptr, ptr %3, align 8, !tbaa !20
  store i32 %9, ptr %10, align 4, !tbaa !14
  %11 = load i32, ptr %5, align 4, !tbaa !14
  %12 = load ptr, ptr %4, align 8, !tbaa !20
  store i32 %11, ptr %12, align 4, !tbaa !14
  call void @llvm.lifetime.end.p0(i64 4, ptr %5) #14
  ret void
}

; Function Attrs: mustprogress nounwind uwtable
define linkonce_odr void @_ZN6icu_7715MaybeStackArrayIPNS_14SingleUnitImplELi8EED2Ev(ptr noundef nonnull align 8 dereferenceable(80) %0) unnamed_addr #0 comdat align 2 personality ptr @__gxx_personality_v0 {
  %2 = alloca ptr, align 8
  store ptr %0, ptr %2, align 8, !tbaa !180
  %3 = load ptr, ptr %2, align 8
  invoke void @_ZN6icu_7715MaybeStackArrayIPNS_14SingleUnitImplELi8EE12releaseArrayEv(ptr noundef nonnull align 8 dereferenceable(80) %3)
          to label %4 unwind label %5

4:                                                ; preds = %1
  ret void

5:                                                ; preds = %1
  %6 = landingpad { ptr, i32 }
          catch ptr null
  %7 = extractvalue { ptr, i32 } %6, 0
  call void @__clang_call_terminate(ptr %7) #16
  unreachable
}

; Function Attrs: mustprogress nounwind uwtable
define linkonce_odr noundef nonnull align 8 dereferenceable(8) ptr @_ZN6icu_7715MaybeStackArrayIPNS_14SingleUnitImplELi8EEixEl(ptr noundef nonnull align 8 dereferenceable(80) %0, i64 noundef %1) #0 comdat align 2 {
  %3 = alloca ptr, align 8
  %4 = alloca i64, align 8
  store ptr %0, ptr %3, align 8, !tbaa !180
  store i64 %1, ptr %4, align 8, !tbaa !18
  %5 = load ptr, ptr %3, align 8
  %6 = getelementptr inbounds nuw %"class.icu_77::MaybeStackArray.0", ptr %5, i32 0, i32 0
  %7 = load ptr, ptr %6, align 8, !tbaa !182
  %8 = load i64, ptr %4, align 8, !tbaa !18
  %9 = getelementptr inbounds ptr, ptr %7, i64 %8
  ret ptr %9
}

; Function Attrs: mustprogress nounwind uwtable
define linkonce_odr noundef nonnull align 8 dereferenceable(88) ptr @_ZN6icu_7710MemoryPoolINS_14SingleUnitImplELi8EEaSEOS2_(ptr noundef nonnull align 8 dereferenceable(88) %0, ptr noundef nonnull align 8 dereferenceable(88) %1) #0 comdat align 2 {
  %3 = alloca ptr, align 8
  %4 = alloca ptr, align 8
  store ptr %0, ptr %3, align 8, !tbaa !95
  store ptr %1, ptr %4, align 8, !tbaa !95
  %5 = load ptr, ptr %3, align 8
  %6 = getelementptr inbounds nuw %"class.icu_77::MemoryPool", ptr %5, i32 0, i32 0
  %7 = load ptr, ptr %4, align 8, !tbaa !95
  %8 = getelementptr inbounds nuw %"class.icu_77::MemoryPool", ptr %7, i32 0, i32 0
  call void @_ZSt4swapIiENSt9enable_ifIXsr6__and_ISt6__not_ISt15__is_tuple_likeIT_EESt21is_move_constructibleIS3_ESt18is_move_assignableIS3_EEE5valueEvE4typeERS3_SC_(ptr noundef nonnull align 4 dereferenceable(4) %6, ptr noundef nonnull align 4 dereferenceable(4) %8) #14
  %9 = getelementptr inbounds nuw %"class.icu_77::MemoryPool", ptr %5, i32 0, i32 1
  %10 = load ptr, ptr %4, align 8, !tbaa !95
  %11 = getelementptr inbounds nuw %"class.icu_77::MemoryPool", ptr %10, i32 0, i32 1
  call void @_ZSt4swapIN6icu_7715MaybeStackArrayIPNS0_14SingleUnitImplELi8EEEENSt9enable_ifIXsr6__and_ISt6__not_ISt15__is_tuple_likeIT_EESt21is_move_constructibleIS8_ESt18is_move_assignableIS8_EEE5valueEvE4typeERS8_SH_(ptr noundef nonnull align 8 dereferenceable(80) %9, ptr noundef nonnull align 8 dereferenceable(80) %11) #14
  ret ptr %5
}

; Function Attrs: mustprogress nounwind uwtable
define linkonce_odr void @_ZN6icu_7710MemoryPoolINS_14SingleUnitImplELi8EED2Ev(ptr noundef nonnull align 8 dereferenceable(88) %0) unnamed_addr #0 comdat align 2 personality ptr @__gxx_personality_v0 {
  %2 = alloca ptr, align 8
  %3 = alloca i32, align 4
  store ptr %0, ptr %2, align 8, !tbaa !95
  %4 = load ptr, ptr %2, align 8
  call void @llvm.lifetime.start.p0(i64 4, ptr %3) #14
  store i32 0, ptr %3, align 4, !tbaa !14
  br label %5

5:                                                ; preds = %21, %1
  %6 = load i32, ptr %3, align 4, !tbaa !14
  %7 = getelementptr inbounds nuw %"class.icu_77::MemoryPool", ptr %4, i32 0, i32 0
  %8 = load i32, ptr %7, align 8, !tbaa !93
  %9 = icmp slt i32 %6, %8
  br i1 %9, label %11, label %10

10:                                               ; preds = %5
  call void @llvm.lifetime.end.p0(i64 4, ptr %3) #14
  br label %24

11:                                               ; preds = %5
  %12 = getelementptr inbounds nuw %"class.icu_77::MemoryPool", ptr %4, i32 0, i32 1
  %13 = load i32, ptr %3, align 4, !tbaa !14
  %14 = sext i32 %13 to i64
  %15 = invoke noundef nonnull align 8 dereferenceable(8) ptr @_ZN6icu_7715MaybeStackArrayIPNS_14SingleUnitImplELi8EEixEl(ptr noundef nonnull align 8 dereferenceable(80) %12, i64 noundef %14)
          to label %16 unwind label %26

16:                                               ; preds = %11
  %17 = load ptr, ptr %15, align 8, !tbaa !79
  %18 = icmp eq ptr %17, null
  br i1 %18, label %20, label %19

19:                                               ; preds = %16
  call void @_ZN6icu_777UMemorydlEPv(ptr noundef %17) #14
  br label %20

20:                                               ; preds = %19, %16
  br label %21

21:                                               ; preds = %20
  %22 = load i32, ptr %3, align 4, !tbaa !14
  %23 = add nsw i32 %22, 1
  store i32 %23, ptr %3, align 4, !tbaa !14
  br label %5, !llvm.loop !97

24:                                               ; preds = %10
  %25 = getelementptr inbounds nuw %"class.icu_77::MemoryPool", ptr %4, i32 0, i32 1
  call void @_ZN6icu_7715MaybeStackArrayIPNS_14SingleUnitImplELi8EED2Ev(ptr noundef nonnull align 8 dereferenceable(80) %25) #14
  ret void

26:                                               ; preds = %11
  %27 = landingpad { ptr, i32 }
          catch ptr null
  %28 = extractvalue { ptr, i32 } %27, 0
  call void @__clang_call_terminate(ptr %28) #16
  unreachable
}

; Function Attrs: mustprogress nounwind uwtable
define linkonce_odr void @_ZN6icu_7710CharStringD2Ev(ptr noundef nonnull align 8 dereferenceable(60) %0) unnamed_addr #0 comdat align 2 {
  %2 = alloca ptr, align 8
  store ptr %0, ptr %2, align 8, !tbaa !32
  %3 = load ptr, ptr %2, align 8
  %4 = getelementptr inbounds nuw %"class.icu_77::CharString", ptr %3, i32 0, i32 0
  call void @_ZN6icu_7715MaybeStackArrayIcLi40EED1Ev(ptr noundef nonnull align 8 dereferenceable(53) %4) #14
  ret void
}

; Function Attrs: inlinehint mustprogress nounwind uwtable
define linkonce_odr noundef nonnull align 8 dereferenceable(88) ptr @_ZN6icu_7716MaybeStackVectorINS_14SingleUnitImplELi8EEaSEOS2_(ptr noundef nonnull align 8 dereferenceable(88) %0, ptr noundef nonnull align 8 dereferenceable(88) %1) #2 comdat align 2 {
  %3 = alloca ptr, align 8
  %4 = alloca ptr, align 8
  store ptr %0, ptr %3, align 8, !tbaa !91
  store ptr %1, ptr %4, align 8, !tbaa !91
  %5 = load ptr, ptr %3, align 8
  %6 = load ptr, ptr %4, align 8, !tbaa !91
  %7 = call noundef nonnull align 8 dereferenceable(88) ptr @_ZN6icu_7710MemoryPoolINS_14SingleUnitImplELi8EEaSEOS2_(ptr noundef nonnull align 8 dereferenceable(88) %5, ptr noundef nonnull align 8 dereferenceable(88) %6) #14
  ret ptr %5
}

; Function Attrs: inlinehint mustprogress nounwind uwtable
define internal void @_ZN6icu_7712_GLOBAL__N_16ParserD2Ev(ptr noundef nonnull align 8 dereferenceable(58) %0) unnamed_addr #2 align 2 {
  %2 = alloca ptr, align 8
  store ptr %0, ptr %2, align 8, !tbaa !98
  %3 = load ptr, ptr %2, align 8
  %4 = getelementptr inbounds nuw %"class.icu_77::(anonymous namespace)::Parser", ptr %3, i32 0, i32 3
  call void @_ZN6icu_779BytesTrieD1Ev(ptr noundef nonnull align 8 dereferenceable(28) %4) #14
  ret void
}

; Function Attrs: inlinehint mustprogress nounwind uwtable
define linkonce_odr void @_ZN6icu_7715MeasureUnitImplD2Ev(ptr noundef nonnull align 8 dereferenceable(168) %0) unnamed_addr #2 comdat align 2 {
  %2 = alloca ptr, align 8
  store ptr %0, ptr %2, align 8, !tbaa !25
  %3 = load ptr, ptr %2, align 8
  %4 = getelementptr inbounds nuw %"class.icu_77::MeasureUnitImpl", ptr %3, i32 0, i32 2
  call void @_ZN6icu_7710CharStringD2Ev(ptr noundef nonnull align 8 dereferenceable(60) %4) #14
  %5 = getelementptr inbounds nuw %"class.icu_77::MeasureUnitImpl", ptr %3, i32 0, i32 1
  call void @_ZN6icu_7710MemoryPoolINS_14SingleUnitImplELi8EED2Ev(ptr noundef nonnull align 8 dereferenceable(88) %5) #14
  ret void
}

; Function Attrs: mustprogress nounwind uwtable
define linkonce_odr noundef nonnull align 8 dereferenceable(168) ptr @_ZN6icu_7715MeasureUnitImplaSEOS0_(ptr noundef nonnull align 8 dereferenceable(168) %0, ptr noundef nonnull align 8 dereferenceable(168) %1) #0 comdat align 2 {
  %3 = alloca ptr, align 8
  %4 = alloca ptr, align 8
  store ptr %0, ptr %3, align 8, !tbaa !25
  store ptr %1, ptr %4, align 8, !tbaa !25
  %5 = load ptr, ptr %3, align 8
  %6 = load ptr, ptr %4, align 8, !tbaa !25
  %7 = getelementptr inbounds nuw %"class.icu_77::MeasureUnitImpl", ptr %6, i32 0, i32 0
  %8 = load i32, ptr %7, align 8, !tbaa !67
  %9 = getelementptr inbounds nuw %"class.icu_77::MeasureUnitImpl", ptr %5, i32 0, i32 0
  store i32 %8, ptr %9, align 8, !tbaa !67
  %10 = getelementptr inbounds nuw %"class.icu_77::MeasureUnitImpl", ptr %5, i32 0, i32 1
  %11 = load ptr, ptr %4, align 8, !tbaa !25
  %12 = getelementptr inbounds nuw %"class.icu_77::MeasureUnitImpl", ptr %11, i32 0, i32 1
  %13 = call noundef nonnull align 8 dereferenceable(88) ptr @_ZN6icu_7716MaybeStackVectorINS_14SingleUnitImplELi8EEaSEOS2_(ptr noundef nonnull align 8 dereferenceable(88) %10, ptr noundef nonnull align 8 dereferenceable(88) %12) #14
  %14 = getelementptr inbounds nuw %"class.icu_77::MeasureUnitImpl", ptr %5, i32 0, i32 2
  %15 = load ptr, ptr %4, align 8, !tbaa !25
  %16 = getelementptr inbounds nuw %"class.icu_77::MeasureUnitImpl", ptr %15, i32 0, i32 2
  %17 = call noundef nonnull align 8 dereferenceable(60) ptr @_ZN6icu_7710CharStringaSEOS0_(ptr noundef nonnull align 8 dereferenceable(60) %14, ptr noundef nonnull align 8 dereferenceable(60) %16) #14
  %18 = load ptr, ptr %4, align 8, !tbaa !25
  %19 = getelementptr inbounds nuw %"class.icu_77::MeasureUnitImpl", ptr %18, i32 0, i32 3
  %20 = load i64, ptr %19, align 8, !tbaa !60
  %21 = getelementptr inbounds nuw %"class.icu_77::MeasureUnitImpl", ptr %5, i32 0, i32 3
  store i64 %20, ptr %21, align 8, !tbaa !60
  ret ptr %5
}

; Function Attrs: mustprogress uwtable
define noundef nonnull align 8 dereferenceable(168) ptr @_ZN6icu_7715MeasureUnitImpl14forMeasureUnitERKNS_11MeasureUnitERS0_R10UErrorCode(ptr noundef nonnull align 8 dereferenceable(19) %0, ptr noundef nonnull align 8 dereferenceable(168) %1, ptr noundef nonnull align 4 dereferenceable(4) %2) #1 align 2 personality ptr @__gxx_personality_v0 {
  %4 = alloca ptr, align 8
  %5 = alloca ptr, align 8
  %6 = alloca ptr, align 8
  %7 = alloca ptr, align 8
  %8 = alloca %"class.icu_77::MeasureUnitImpl", align 8
  %9 = alloca %"class.icu_77::(anonymous namespace)::Parser", align 8
  %10 = alloca %"class.icu_77::StringPiece", align 8
  %11 = alloca ptr, align 8
  %12 = alloca i32, align 4
  store ptr %0, ptr %5, align 8, !tbaa !84
  store ptr %1, ptr %6, align 8, !tbaa !25
  store ptr %2, ptr %7, align 8, !tbaa !22
  %13 = load ptr, ptr %5, align 8, !tbaa !84
  %14 = getelementptr inbounds nuw %"class.icu_77::MeasureUnit", ptr %13, i32 0, i32 1
  %15 = load ptr, ptr %14, align 8, !tbaa !87
  %16 = icmp ne ptr %15, null
  br i1 %16, label %17, label %21

17:                                               ; preds = %3
  %18 = load ptr, ptr %5, align 8, !tbaa !84
  %19 = getelementptr inbounds nuw %"class.icu_77::MeasureUnit", ptr %18, i32 0, i32 1
  %20 = load ptr, ptr %19, align 8, !tbaa !87
  store ptr %20, ptr %4, align 8
  br label %38

21:                                               ; preds = %3
  call void @llvm.lifetime.start.p0(i64 168, ptr %8) #14
  call void @llvm.lifetime.start.p0(i64 64, ptr %9) #14
  %22 = load ptr, ptr %5, align 8, !tbaa !84
  %23 = call noundef ptr @_ZNK6icu_7711MeasureUnit13getIdentifierEv(ptr noundef nonnull align 8 dereferenceable(19) %22)
  call void @_ZN6icu_7711StringPieceC1EPKc(ptr noundef nonnull align 8 dereferenceable(12) %10, ptr noundef %23)
  %24 = load ptr, ptr %7, align 8, !tbaa !22
  %25 = getelementptr inbounds nuw { ptr, i32 }, ptr %10, i32 0, i32 0
  %26 = load ptr, ptr %25, align 8
  %27 = getelementptr inbounds nuw { ptr, i32 }, ptr %10, i32 0, i32 1
  %28 = load i32, ptr %27, align 8
  call void @_ZN6icu_7712_GLOBAL__N_16Parser4fromENS_11StringPieceER10UErrorCode(ptr dead_on_unwind writable sret(%"class.icu_77::(anonymous namespace)::Parser") align 8 %9, ptr %26, i32 %28, ptr noundef nonnull align 4 dereferenceable(4) %24)
  %29 = load ptr, ptr %7, align 8, !tbaa !22
  invoke void @_ZN6icu_7712_GLOBAL__N_16Parser5parseER10UErrorCode(ptr dead_on_unwind writable sret(%"class.icu_77::MeasureUnitImpl") align 8 %8, ptr noundef nonnull align 8 dereferenceable(58) %9, ptr noundef nonnull align 4 dereferenceable(4) %29)
          to label %30 unwind label %34

30:                                               ; preds = %21
  %31 = load ptr, ptr %6, align 8, !tbaa !25
  %32 = call noundef nonnull align 8 dereferenceable(168) ptr @_ZN6icu_7715MeasureUnitImplaSEOS0_(ptr noundef nonnull align 8 dereferenceable(168) %31, ptr noundef nonnull align 8 dereferenceable(168) %8) #14
  call void @_ZN6icu_7715MeasureUnitImplD2Ev(ptr noundef nonnull align 8 dereferenceable(168) %8) #14
  call void @_ZN6icu_7712_GLOBAL__N_16ParserD2Ev(ptr noundef nonnull align 8 dereferenceable(58) %9) #14
  call void @llvm.lifetime.end.p0(i64 64, ptr %9) #14
  call void @llvm.lifetime.end.p0(i64 168, ptr %8) #14
  %33 = load ptr, ptr %6, align 8, !tbaa !25
  store ptr %33, ptr %4, align 8
  br label %38

34:                                               ; preds = %21
  %35 = landingpad { ptr, i32 }
          cleanup
  %36 = extractvalue { ptr, i32 } %35, 0
  store ptr %36, ptr %11, align 8
  %37 = extractvalue { ptr, i32 } %35, 1
  store i32 %37, ptr %12, align 4
  call void @_ZN6icu_7712_GLOBAL__N_16ParserD2Ev(ptr noundef nonnull align 8 dereferenceable(58) %9) #14
  call void @llvm.lifetime.end.p0(i64 64, ptr %9) #14
  call void @llvm.lifetime.end.p0(i64 168, ptr %8) #14
  br label %40

38:                                               ; preds = %30, %17
  %39 = load ptr, ptr %4, align 8
  ret ptr %39

40:                                               ; preds = %34
  %41 = load ptr, ptr %11, align 8
  %42 = load i32, ptr %12, align 4
  %43 = insertvalue { ptr, i32 } poison, ptr %41, 0
  %44 = insertvalue { ptr, i32 } %43, i32 %42, 1
  resume { ptr, i32 } %44
}