; Function Attrs: mustprogress uwtable
define noundef nonnull align 8 dereferenceable(168) ptr @_ZN6icu_7715MeasureUnitImpl14forMeasureUnitERKNS_11MeasureUnitERS0_R10UErrorCode(ptr noundef nonnull align 8 dereferenceable(19) %0, ptr noundef nonnull align 8 dereferenceable(168) %1, ptr noundef nonnull align 4 dereferenceable(4) %2) local_unnamed_addr #1 align 2 personality ptr @__gxx_personality_v0 {
  %4 = alloca %"class.icu_77::MeasureUnitImpl", align 8
  %5 = alloca %"class.icu_77::(anonymous namespace)::Parser", align 8
  %6 = alloca %"class.icu_77::StringPiece", align 8
  %7 = getelementptr inbounds nuw i8, ptr %0, i64 8
  %8 = load ptr, ptr %7, align 8, !tbaa !88
  %.not = icmp eq ptr %8, null
  br i1 %.not, label %9, label %51

9:                                                ; preds = %3
  call void @llvm.lifetime.start.p0(i64 168, ptr nonnull %4) #18
  call void @llvm.lifetime.start.p0(i64 64, ptr nonnull %5) #18
  %10 = tail call noundef ptr @_ZNK6icu_7711MeasureUnit13getIdentifierEv(ptr noundef nonnull align 8 dereferenceable(19) %0)
  call void @_ZN6icu_7711StringPieceC1EPKc(ptr noundef nonnull align 8 dereferenceable(12) %6, ptr noundef %10)
  %11 = load ptr, ptr %6, align 8
  %12 = getelementptr inbounds nuw i8, ptr %6, i64 8
  %13 = load i32, ptr %12, align 8
  call fastcc void @_ZN6icu_7712_GLOBAL__N_16Parser4fromENS_11StringPieceER10UErrorCode(ptr dead_on_unwind noalias writable align 8 %5, ptr %11, i32 %13, ptr noundef nonnull align 4 dereferenceable(4) %2)
  invoke fastcc void @_ZN6icu_7712_GLOBAL__N_16Parser5parseER10UErrorCode(ptr dead_on_unwind noalias nonnull writable align 8 %4, ptr noundef nonnull align 8 dereferenceable(58) %5, ptr noundef nonnull align 4 dereferenceable(4) %2)
          to label %14 unwind label %48

14:                                               ; preds = %9
  %15 = load i32, ptr %4, align 8, !tbaa !76
  store i32 %15, ptr %1, align 8, !tbaa !76
  %16 = getelementptr inbounds nuw i8, ptr %1, i64 8
  %17 = getelementptr inbounds nuw i8, ptr %4, i64 8
  %18 = load i32, ptr %16, align 8, !tbaa !12
  %19 = load i32, ptr %17, align 8, !tbaa !12
  store i32 %19, ptr %16, align 8, !tbaa !12
  store i32 %18, ptr %17, align 8, !tbaa !12
  %20 = getelementptr inbounds nuw i8, ptr %1, i64 16
  %21 = getelementptr inbounds nuw i8, ptr %4, i64 16
  call void @_ZSt4swapIN6icu_7715MaybeStackArrayIPNS0_14SingleUnitImplELi8EEEENSt9enable_ifIXsr6__and_ISt6__not_ISt15__is_tuple_likeIT_EESt21is_move_constructibleIS8_ESt18is_move_assignableIS8_EEE5valueEvE4typeERS8_SH_(ptr noundef nonnull align 8 dereferenceable(80) %20, ptr noundef nonnull align 8 dereferenceable(80) %21) #18
  %22 = getelementptr inbounds nuw i8, ptr %1, i64 96
  %23 = getelementptr inbounds nuw i8, ptr %4, i64 96
  %24 = call noundef nonnull align 8 dereferenceable(60) ptr @_ZN6icu_7710CharStringaSEOS0_(ptr noundef nonnull align 8 dereferenceable(60) %22, ptr noundef nonnull align 8 dereferenceable(60) %23) #18
  %25 = getelementptr inbounds nuw i8, ptr %4, i64 160
  %26 = load i64, ptr %25, align 8, !tbaa !81
  %27 = getelementptr inbounds nuw i8, ptr %1, i64 160
  store i64 %26, ptr %27, align 8, !tbaa !81
  call void @_ZN6icu_7715MaybeStackArrayIcLi40EED1Ev(ptr noundef nonnull align 8 dereferenceable(60) %23) #18
  %28 = load i32, ptr %17, align 8, !tbaa !28
  %29 = icmp sgt i32 %28, 0
  br i1 %29, label %.lr.ph.i.i, label %._crit_edge.i.i

._crit_edge.i.i:                                  ; preds = %43, %14
  %30 = getelementptr inbounds nuw i8, ptr %4, i64 28
  %31 = load i8, ptr %30, align 4, !tbaa !45
  %.not.i.i.i.i = icmp eq i8 %31, 0
  br i1 %.not.i.i.i.i, label %_ZN6icu_7715MeasureUnitImplD2Ev.exit, label %32

32:                                               ; preds = %._crit_edge.i.i
  %33 = load ptr, ptr %21, align 8, !tbaa !33
  invoke void @uprv_free_77(ptr noundef %33)
          to label %_ZN6icu_7715MeasureUnitImplD2Ev.exit unwind label %34

34:                                               ; preds = %32
  %35 = landingpad { ptr, i32 }
          catch ptr null
  %36 = extractvalue { ptr, i32 } %35, 0
  call void @__clang_call_terminate(ptr %36) #20
  unreachable

.lr.ph.i.i:                                       ; preds = %14, %43
  %37 = phi i32 [ %44, %43 ], [ %28, %14 ]
  %indvars.iv.i.i = phi i64 [ %indvars.iv.next.i.i, %43 ], [ 0, %14 ]
  %38 = load ptr, ptr %21, align 8, !tbaa !33
  %39 = getelementptr inbounds nuw ptr, ptr %38, i64 %indvars.iv.i.i
  %40 = load ptr, ptr %39, align 8, !tbaa !34
  %41 = icmp eq ptr %40, null
  br i1 %41, label %43, label %42

42:                                               ; preds = %.lr.ph.i.i
  call void @_ZN6icu_777UMemorydlEPv(ptr noundef nonnull %40) #18
  %.pre.i.i = load i32, ptr %17, align 8, !tbaa !28
  br label %43

43:                                               ; preds = %42, %.lr.ph.i.i
  %44 = phi i32 [ %37, %.lr.ph.i.i ], [ %.pre.i.i, %42 ]
  %indvars.iv.next.i.i = add nuw nsw i64 %indvars.iv.i.i, 1
  %45 = sext i32 %44 to i64
  %46 = icmp slt i64 %indvars.iv.next.i.i, %45
  br i1 %46, label %.lr.ph.i.i, label %._crit_edge.i.i, !llvm.loop !46

_ZN6icu_7715MeasureUnitImplD2Ev.exit:             ; preds = %._crit_edge.i.i, %32
  %47 = getelementptr inbounds nuw i8, ptr %5, i64 24
  call void @_ZN6icu_779BytesTrieD1Ev(ptr noundef nonnull align 8 dereferenceable(28) %47) #18
  call void @llvm.lifetime.end.p0(i64 64, ptr nonnull %5) #18
  call void @llvm.lifetime.end.p0(i64 168, ptr nonnull %4) #18
  br label %51

48:                                               ; preds = %9
  %49 = landingpad { ptr, i32 }
          cleanup
  %50 = getelementptr inbounds nuw i8, ptr %5, i64 24
  call void @_ZN6icu_779BytesTrieD1Ev(ptr noundef nonnull align 8 dereferenceable(28) %50) #18
  call void @llvm.lifetime.end.p0(i64 64, ptr nonnull %5) #18
  call void @llvm.lifetime.end.p0(i64 168, ptr nonnull %4) #18
  resume { ptr, i32 } %49

51:                                               ; preds = %3, %_ZN6icu_7715MeasureUnitImplD2Ev.exit
  %.0 = phi ptr [ %1, %_ZN6icu_7715MeasureUnitImplD2Ev.exit ], [ %8, %3 ]
  ret ptr %.0
}